;;==========================================================================
;; Copyright (c) 2000-20013,  Elastos, Inc.  All Rights Reserved.
;;==========================================================================

LIBRARY Elastos.CoreLibrary.eco

EXPORTS
    ;;ListNode
    ;;ListNodeAddNext
    ;;ListNodeAddPrev
    ;;ListNodeDetach
    ;;ListNodeAddListAfter
    ;;ListNodeAddListBefore
    ;;ListNodeDetachSublist

    ;;QuickListNode
    ;;QuickListNodeDetach

    ;;TreeNode
    ;;TreeNodeAddRight
    ;;TreeNodeAddLeft
    ;;TreeNodeRemoveWithReplacement
    ;;TreeNodeMoveCloserToRoot

    ;;MultiTreeNode
    ;;MultiTreeNodeAddChild
    ;;MultiTreeNodeDetachChild
    ;;MultiTreeNodeFirstChild
    ;;MultiTreeNodeAddNext
    ;;MultiTreeNodeAddPrev
    ;;MultiTreeNodeAddChildren
    ;;MultiTreeNodeAddSiblingsAfter
    ;;MultiTreeNodeAddSiblingsBefore
    ;;MultiTreeNodeDetachChildAndSiblings
    ;;MultiTreeNodeDetachSelfAndSiblings

    ;;DoubleLinkNode
    ;;DoubleLinkNodeInsertPrev
    ;;DoubleLinkNodeInsertNext
    ;;DoubleLinkNodeDetach

    ;;SingleLinkNode
    ;;SingleLinkNodeInsertNext
    ;;SingleLinkNodeDetach

    ;;SimpleContainer
    ;;SimpleContainerCurrent
    ;;SimpleContainerMoveNext
    ;;SimpleContainerReset
    ;;SimpleContainerAdd
    ;;SimpleContainerRemove

    ;;ObjectContainer
    ;;ObjectContainerDispose
    ;;ObjectContainerCurrent
    ;;ObjectContainerAdd
    ;;ObjectContainerRemove

    ;;Object
    _ZN7Elastos4Core6Object10GetClassIDEPNS_6_EGuidE
    _ZN7Elastos4Core6Object11GetHashCodeEPi
    _ZN7Elastos4Core6Object14GetInterfaceIDEP10IInterfacePNS_6_EMuidE
    _ZN7Elastos4Core6Object16GetWeakReferenceEPP14IWeakReference
    _ZN7Elastos4Core6Object4LockEv
    _ZN7Elastos4Core6Object4WaitEv
    _ZN7Elastos4Core6Object4WaitEx
    _ZN7Elastos4Core6Object4WaitExi
    _ZN7Elastos4Core6Object5ProbeERKNS_6_EMuidE
    _ZN7Elastos4Core6Object6AddRefEv
    _ZN7Elastos4Core6Object6EqualsEP10IInterfacePh
    _ZN7Elastos4Core6Object6NotifyEv
    _ZN7Elastos4Core6Object6UnlockEv
    _ZN7Elastos4Core6Object7ReleaseEv
    _ZN7Elastos4Core6Object8ToStringEPNS_6StringE
    _ZN7Elastos4Core6Object9AggregateE13AggregateTypeP10IInterface
    _ZN7Elastos4Core6Object9GetDomainEPP10IInterface
    _ZN7Elastos4Core6Object9NotifyAllEv
    _ZN7Elastos4Core6ObjectC1Ev
    _ZN7Elastos4Core6ObjectC2Ev
    _ZN7Elastos4Core6ObjectD0Ev
    _ZN7Elastos4Core6ObjectD1Ev
    _ZN7Elastos4Core6ObjectD2Ev
    _ZThn12_N7Elastos4Core6Object14GetInterfaceIDEP10IInterfacePNS_6_EMuidE
    _ZThn12_N7Elastos4Core6Object4LockEv
    _ZThn12_N7Elastos4Core6Object4WaitEv
    _ZThn12_N7Elastos4Core6Object4WaitEx
    _ZThn12_N7Elastos4Core6Object4WaitExi
    _ZThn12_N7Elastos4Core6Object5ProbeERKNS_6_EMuidE
    _ZThn12_N7Elastos4Core6Object6AddRefEv
    _ZThn12_N7Elastos4Core6Object6NotifyEv
    _ZThn12_N7Elastos4Core6Object6UnlockEv
    _ZThn12_N7Elastos4Core6Object7ReleaseEv
    _ZThn12_N7Elastos4Core6Object9NotifyAllEv
    _ZThn16_N7Elastos4Core6Object14GetInterfaceIDEP10IInterfacePNS_6_EMuidE
    _ZThn16_N7Elastos4Core6Object16GetWeakReferenceEPP14IWeakReference
    _ZThn16_N7Elastos4Core6Object5ProbeERKNS_6_EMuidE
    _ZThn16_N7Elastos4Core6Object6AddRefEv
    _ZThn16_N7Elastos4Core6Object7ReleaseEv
    _ZThn8_N7Elastos4Core6Object10GetClassIDEPNS_6_EGuidE
    _ZThn8_N7Elastos4Core6Object11GetHashCodeEPi
    _ZThn8_N7Elastos4Core6Object14GetInterfaceIDEP10IInterfacePNS_6_EMuidE
    _ZThn8_N7Elastos4Core6Object5ProbeERKNS_6_EMuidE
    _ZThn8_N7Elastos4Core6Object6AddRefEv
    _ZThn8_N7Elastos4Core6Object6EqualsEP10IInterfacePh
    _ZThn8_N7Elastos4Core6Object7ReleaseEv
    _ZThn8_N7Elastos4Core6Object8ToStringEPNS_6StringE
    _ZThn8_N7Elastos4Core6Object9AggregateE13AggregateTypeP10IInterface
    _ZThn8_N7Elastos4Core6Object9GetDomainEPP10IInterface

    ;;Singleton
    _ZN7Elastos4Core9SingletonC1Ev
    _ZN7Elastos4Core9SingletonC2Ev
    _ZN7Elastos4Core9SingletonD0Ev
    _ZN7Elastos4Core9SingletonD1Ev
    _ZN7Elastos4Core9SingletonD2Ev
    _ZN7Elastos4Core9Singleton6AddRefEv
    _ZN7Elastos4Core9Singleton7ReleaseEv
    _ZThn12_N7Elastos4Core9Singleton6AddRefEv
    _ZThn12_N7Elastos4Core9Singleton7ReleaseEv
    _ZThn16_N7Elastos4Core9Singleton6AddRefEv
    _ZThn16_N7Elastos4Core9Singleton7ReleaseEv
    _ZThn8_N7Elastos4Core9Singleton6AddRefEv
    _ZThn8_N7Elastos4Core9Singleton7ReleaseEv

    ;;Thread
    _ZN7Elastos4Core6Thread11CheckAccessEv
    _ZN7Elastos4Core6Thread11GetPriorityEPi
    _ZN7Elastos4Core6Thread11InterruptedEv
    _ZN7Elastos4Core6Thread11SetPriorityEi
    _ZN7Elastos4Core6Thread11constructorEPNS0_12IThreadGroupEPNS0_9IRunnableE
    _ZN7Elastos4Core6Thread11constructorEPNS0_12IThreadGroupEPNS0_9IRunnableERKNS_6StringE
    _ZN7Elastos4Core6Thread11constructorEPNS0_12IThreadGroupEPNS0_9IRunnableERKNS_6StringEx
    _ZN7Elastos4Core6Thread11constructorEPNS0_12IThreadGroupERKNS_6StringE
    _ZN7Elastos4Core6Thread11constructorEPNS0_12IThreadGroupERKNS_6StringEih
    _ZN7Elastos4Core6Thread11constructorEPNS0_9IRunnableE
    _ZN7Elastos4Core6Thread11constructorEPNS0_9IRunnableERKNS_6StringE
    _ZN7Elastos4Core6Thread11constructorERKNS_6StringE
    _ZN7Elastos4Core6Thread11constructorEv
    _ZN7Elastos4Core6Thread13IsInterruptedEPh
    _ZN7Elastos4Core6Thread14GetActiveCountEv
    _ZN7Elastos4Core6Thread14GetInterfaceIDEP10IInterfacePNS_6_EMuidE
    _ZN7Elastos4Core6Thread14GetThreadGroupEPPNS0_12IThreadGroupE
    _ZN7Elastos4Core6Thread16CountStackFramesEPi
    _ZN7Elastos4Core6Thread16GetCurrentThreadEv
    _ZN7Elastos4Core6Thread18PopInterruptActionEPNS0_9IRunnableE
    _ZN7Elastos4Core6Thread19PushInterruptActionEPNS0_9IRunnableE
    _ZN7Elastos4Core6Thread21GetContextClassLoaderEPPNS0_12IClassLoaderE
    _ZN7Elastos4Core6Thread21SetContextClassLoaderEPNS0_12IClassLoaderE
    _ZN7Elastos4Core6Thread27GetUncaughtExceptionHandlerEPPNS0_31IThreadUncaughtExceptionHandlerE
    _ZN7Elastos4Core6Thread27SetUncaughtExceptionHandlerEPNS0_31IThreadUncaughtExceptionHandlerE
    _ZN7Elastos4Core6Thread34GetDefaultUncaughtExceptionHandlerEv
    _ZN7Elastos4Core6Thread34SetDefaultUncaughtExceptionHandlerEPNS0_31IThreadUncaughtExceptionHandlerE
    _ZN7Elastos4Core6Thread3RunEv
    _ZN7Elastos4Core6Thread4JoinEv
    _ZN7Elastos4Core6Thread4JoinEx
    _ZN7Elastos4Core6Thread4JoinExi
    _ZN7Elastos4Core6Thread4StopEv
    _ZN7Elastos4Core6Thread5GetIdEPx
    _ZN7Elastos4Core6Thread5ProbeERKNS_6_EMuidE
    _ZN7Elastos4Core6Thread5SleepEx
    _ZN7Elastos4Core6Thread5SleepExi
    _ZN7Elastos4Core6Thread5StartEv
    _ZN7Elastos4Core6Thread5YieldEv
    _ZN7Elastos4Core6Thread6AddRefEv
    _ZN7Elastos4Core6Thread6AttachEPPNS0_7IThreadE
    _ZN7Elastos4Core6Thread6AttachERKNS_6StringEPPNS0_7IThreadE
    _ZN7Elastos4Core6Thread6DetachEv
    _ZN7Elastos4Core6Thread6ResumeEv
    _ZN7Elastos4Core6Thread6UnparkEv
    _ZN7Elastos4Core6Thread7DestroyEv
    _ZN7Elastos4Core6Thread7GetNameEPNS_6StringE
    _ZN7Elastos4Core6Thread7IsAliveEPh
    _ZN7Elastos4Core6Thread7ParkForEx
    _ZN7Elastos4Core6Thread7ReleaseEv
    _ZN7Elastos4Core6Thread7SetNameERKNS_6StringE
    _ZN7Elastos4Core6Thread7SuspendEv
    _ZN7Elastos4Core6Thread8GetStateEPi
    _ZN7Elastos4Core6Thread8IsDaemonEPh
    _ZN7Elastos4Core6Thread9DumpStackEv
    _ZN7Elastos4Core6Thread9EnumerateEPNS_7ArrayOfIPNS0_7IThreadEEEPi
    _ZN7Elastos4Core6Thread9InterruptEv
    _ZN7Elastos4Core6Thread9ParkUntilEx
    _ZN7Elastos4Core6Thread9SetDaemonEh
    _ZN7Elastos4Core6ThreadC1Ev
    _ZN7Elastos4Core6ThreadC2Ev
    _ZN7Elastos4Core6ThreadD0Ev
    _ZN7Elastos4Core6ThreadD1Ev
    _ZN7Elastos4Core6ThreadD2Ev
    _ZThn12_N7Elastos4Core6Thread14GetInterfaceIDEP10IInterfacePNS_6_EMuidE
    _ZThn12_N7Elastos4Core6Thread5ProbeERKNS_6_EMuidE
    _ZThn12_N7Elastos4Core6Thread6AddRefEv
    _ZThn12_N7Elastos4Core6Thread7ReleaseEv
    _ZThn16_N7Elastos4Core6Thread14GetInterfaceIDEP10IInterfacePNS_6_EMuidE
    _ZThn16_N7Elastos4Core6Thread5ProbeERKNS_6_EMuidE
    _ZThn16_N7Elastos4Core6Thread6AddRefEv
    _ZThn16_N7Elastos4Core6Thread7ReleaseEv
    _ZThn24_N7Elastos4Core6Thread11CheckAccessEv
    _ZThn24_N7Elastos4Core6Thread11GetPriorityEPi
    _ZThn24_N7Elastos4Core6Thread11SetPriorityEi
    _ZThn24_N7Elastos4Core6Thread13IsInterruptedEPh
    _ZThn24_N7Elastos4Core6Thread14GetInterfaceIDEP10IInterfacePNS_6_EMuidE
    _ZThn24_N7Elastos4Core6Thread14GetThreadGroupEPPNS0_12IThreadGroupE
    _ZThn24_N7Elastos4Core6Thread16CountStackFramesEPi
    _ZThn24_N7Elastos4Core6Thread18PopInterruptActionEPNS0_9IRunnableE
    _ZThn24_N7Elastos4Core6Thread19PushInterruptActionEPNS0_9IRunnableE
    _ZThn24_N7Elastos4Core6Thread21GetContextClassLoaderEPPNS0_12IClassLoaderE
    _ZThn24_N7Elastos4Core6Thread21SetContextClassLoaderEPNS0_12IClassLoaderE
    _ZThn24_N7Elastos4Core6Thread27GetUncaughtExceptionHandlerEPPNS0_31IThreadUncaughtExceptionHandlerE
    _ZThn24_N7Elastos4Core6Thread27SetUncaughtExceptionHandlerEPNS0_31IThreadUncaughtExceptionHandlerE
    _ZThn24_N7Elastos4Core6Thread4JoinEv
    _ZThn24_N7Elastos4Core6Thread4JoinEx
    _ZThn24_N7Elastos4Core6Thread4JoinExi
    _ZThn24_N7Elastos4Core6Thread4StopEv
    _ZThn24_N7Elastos4Core6Thread5GetIdEPx
    _ZThn24_N7Elastos4Core6Thread5ProbeERKNS_6_EMuidE
    _ZThn24_N7Elastos4Core6Thread5StartEv
    _ZThn24_N7Elastos4Core6Thread6AddRefEv
    _ZThn24_N7Elastos4Core6Thread6DetachEv
    _ZThn24_N7Elastos4Core6Thread6ResumeEv
    _ZThn24_N7Elastos4Core6Thread6UnparkEv
    _ZThn24_N7Elastos4Core6Thread7DestroyEv
    _ZThn24_N7Elastos4Core6Thread7GetNameEPNS_6StringE
    _ZThn24_N7Elastos4Core6Thread7IsAliveEPh
    _ZThn24_N7Elastos4Core6Thread7ParkForEx
    _ZThn24_N7Elastos4Core6Thread7ReleaseEv
    _ZThn24_N7Elastos4Core6Thread7SetNameERKNS_6StringE
    _ZThn24_N7Elastos4Core6Thread7SuspendEv
    _ZThn24_N7Elastos4Core6Thread8GetStateEPi
    _ZThn24_N7Elastos4Core6Thread8IsDaemonEPh
    _ZThn24_N7Elastos4Core6Thread9InterruptEv
    _ZThn24_N7Elastos4Core6Thread9ParkUntilEx
    _ZThn24_N7Elastos4Core6Thread9SetDaemonEh
    _ZThn28_N7Elastos4Core6Thread14GetInterfaceIDEP10IInterfacePNS_6_EMuidE
    _ZThn28_N7Elastos4Core6Thread3RunEv
    _ZThn28_N7Elastos4Core6Thread5ProbeERKNS_6_EMuidE
    _ZThn28_N7Elastos4Core6Thread6AddRefEv
    _ZThn28_N7Elastos4Core6Thread7ReleaseEv
    _ZThn8_N7Elastos4Core6Thread14GetInterfaceIDEP10IInterfacePNS_6_EMuidE
    _ZThn8_N7Elastos4Core6Thread5ProbeERKNS_6_EMuidE
    _ZThn8_N7Elastos4Core6Thread6AddRefEv
    _ZThn8_N7Elastos4Core6Thread7ReleaseEv


#if defined(_android)
    ;;NativeThread
    NativeThreadSelf
    NativeCreateThread
    NativeAttachCurrentThread
    NativeDetachCurrentThread
    NativeGetMainThreadGroup
    NativeGetThreadFromThreadObject
    NativeLockThreadList
    NativeUnlockThreadList
    NativeChangeStatus
    NativeChangeThreadPriority
    NativeGetCount
    NativeCreateObject
    NativeDestroyObject
    NativeLockObject
    NativeUnlockObject
    NativeObjectWait
    NativeObjectNotify
    NativeObjectNotifyAll
    NativeThreadSleep
    NativeThreadInterrupt

    ;;ThreadKey
    once
    sKeyInstance
#endif

